target datalayout = "e-m:e-p270:32:32-p271:32:32-p272:64:64-i64:64-i128:128-f80:128-n8:16:32:64-S128"
target triple = "x86_64-pc-linux-gnu"

%"class.doctest::String" = type { %union.anon.7 }
%union.anon.7 = type { %"struct.doctest::String::view", [8 x i8] }
%"struct.doctest::String::view" = type { ptr, i32, i32 }

@.str.202 = private unnamed_addr constant [2 x i8] c"-\00", align 1
@.str.203 = private unnamed_addr constant [2 x i8] c"=\00", align 1
@_ZN7doctest6StringD1Ev = dso_local unnamed_addr alias void (ptr), ptr @_ZN7doctest6StringD2Ev
@_ZN7doctest6StringC1EPKc = dso_local unnamed_addr alias void (ptr, ptr), ptr @_ZN7doctest6StringC2EPKc

; Function Attrs: mustprogress nounwind uwtable
define linkonce_odr dso_local noundef zeroext i1 @_ZNK7doctest6String9isOnStackEv(ptr noundef nonnull align 8 dereferenceable(24) %0) #1 comdat align 2 {
  %2 = alloca ptr, align 8
  store ptr %0, ptr %2, align 8, !tbaa !59
  %3 = load ptr, ptr %2, align 8
  %4 = getelementptr inbounds nuw %"class.doctest::String", ptr %3, i32 0, i32 0
  %5 = getelementptr inbounds nuw [24 x i8], ptr %4, i64 0, i64 23
  %6 = load i8, ptr %5, align 1, !tbaa !55
  %7 = sext i8 %6 to i32
  %8 = and i32 %7, 128
  %9 = icmp eq i32 %8, 0
  ret i1 %9
}

; Function Attrs: mustprogress nounwind uwtable
define linkonce_odr dso_local noundef ptr @_ZN7doctest6String5c_strEv(ptr noundef nonnull align 8 dereferenceable(24) %0) #1 comdat align 2 {
  %2 = alloca ptr, align 8
  %3 = alloca ptr, align 8
  store ptr %0, ptr %3, align 8, !tbaa !59
  %4 = load ptr, ptr %3, align 8
  %5 = call noundef zeroext i1 @_ZNK7doctest6String9isOnStackEv(ptr noundef nonnull align 8 dereferenceable(24) %4) #7
  br i1 %5, label %6, label %9

6:                                                ; preds = %1
  %7 = getelementptr inbounds nuw %"class.doctest::String", ptr %4, i32 0, i32 0
  %8 = getelementptr inbounds [24 x i8], ptr %7, i64 0, i64 0
  store ptr %8, ptr %2, align 8
  br label %13

9:                                                ; preds = %1
  %10 = getelementptr inbounds nuw %"class.doctest::String", ptr %4, i32 0, i32 0
  %11 = getelementptr inbounds nuw %"struct.doctest::String::view", ptr %10, i32 0, i32 0
  %12 = load ptr, ptr %11, align 8, !tbaa !55
  store ptr %12, ptr %2, align 8
  br label %13

13:                                               ; preds = %9, %6
  %14 = load ptr, ptr %2, align 8
  ret ptr %14
}

; Function Attrs: mustprogress uwtable
define dso_local void @_ZN7doctest7Context9setOptionEPKcS2_(ptr noundef nonnull align 8 dereferenceable(8) %0, ptr noundef %1, ptr noundef %2) #8 align 2 personality ptr @__gxx_personality_v0 {
  %4 = alloca ptr, align 8
  %5 = alloca ptr, align 8
  %6 = alloca ptr, align 8
  %7 = alloca %"class.doctest::String", align 8
  %8 = alloca %"class.doctest::String", align 8
  %9 = alloca %"class.doctest::String", align 8
  %10 = alloca %"class.doctest::String", align 8
  %11 = alloca %"class.doctest::String", align 8
  %12 = alloca ptr, align 8
  %13 = alloca i32, align 4
  %14 = alloca %"class.doctest::String", align 8
  %15 = alloca %"class.doctest::String", align 8
  %16 = alloca ptr, align 8
  store ptr %0, ptr %4, align 8, !tbaa !306
  store ptr %1, ptr %5, align 8, !tbaa !14
  store ptr %2, ptr %6, align 8, !tbaa !14
  %17 = load ptr, ptr %4, align 8
  call void @llvm.lifetime.start.p0(i64 24, ptr %7) #7
  call void @llvm.lifetime.start.p0(i64 24, ptr %8) #7
  call void @llvm.lifetime.start.p0(i64 24, ptr %9) #7
  call void @llvm.lifetime.start.p0(i64 24, ptr %10) #7
  call void @_ZN7doctest6StringC1EPKc(ptr noundef nonnull align 8 dereferenceable(24) %10, ptr noundef @.str.202)
  call void @llvm.lifetime.start.p0(i64 24, ptr %11) #7
  %18 = load ptr, ptr %5, align 8, !tbaa !14
  invoke void @_ZN7doctest6StringC1EPKc(ptr noundef nonnull align 8 dereferenceable(24) %11, ptr noundef %18)
          to label %19 unwind label %29

19:                                               ; preds = %3
  invoke void @_ZN7doctestplERKNS_6StringES2_(ptr dead_on_unwind writable sret(%"class.doctest::String") align 8 %9, ptr noundef nonnull align 8 dereferenceable(24) %10, ptr noundef nonnull align 8 dereferenceable(24) %11)
          to label %20 unwind label %33

20:                                               ; preds = %19
  call void @llvm.lifetime.start.p0(i64 24, ptr %14) #7
  invoke void @_ZN7doctest6StringC1EPKc(ptr noundef nonnull align 8 dereferenceable(24) %14, ptr noundef @.str.203)
          to label %21 unwind label %37

21:                                               ; preds = %20
  invoke void @_ZN7doctestplERKNS_6StringES2_(ptr dead_on_unwind writable sret(%"class.doctest::String") align 8 %8, ptr noundef nonnull align 8 dereferenceable(24) %9, ptr noundef nonnull align 8 dereferenceable(24) %14)
          to label %22 unwind label %41

22:                                               ; preds = %21
  call void @llvm.lifetime.start.p0(i64 24, ptr %15) #7
  %23 = load ptr, ptr %6, align 8, !tbaa !14
  invoke void @_ZN7doctest6StringC1EPKc(ptr noundef nonnull align 8 dereferenceable(24) %15, ptr noundef %23)
          to label %24 unwind label %45

24:                                               ; preds = %22
  invoke void @_ZN7doctestplERKNS_6StringES2_(ptr dead_on_unwind writable sret(%"class.doctest::String") align 8 %7, ptr noundef nonnull align 8 dereferenceable(24) %8, ptr noundef nonnull align 8 dereferenceable(24) %15)
          to label %25 unwind label %49

25:                                               ; preds = %24
  call void @_ZN7doctest6StringD1Ev(ptr noundef nonnull align 8 dereferenceable(24) %15) #7
  call void @llvm.lifetime.end.p0(i64 24, ptr %15) #7
  call void @_ZN7doctest6StringD1Ev(ptr noundef nonnull align 8 dereferenceable(24) %8) #7
  call void @_ZN7doctest6StringD1Ev(ptr noundef nonnull align 8 dereferenceable(24) %14) #7
  call void @llvm.lifetime.end.p0(i64 24, ptr %14) #7
  call void @_ZN7doctest6StringD1Ev(ptr noundef nonnull align 8 dereferenceable(24) %9) #7
  call void @_ZN7doctest6StringD1Ev(ptr noundef nonnull align 8 dereferenceable(24) %11) #7
  call void @llvm.lifetime.end.p0(i64 24, ptr %11) #7
  call void @_ZN7doctest6StringD1Ev(ptr noundef nonnull align 8 dereferenceable(24) %10) #7
  call void @llvm.lifetime.end.p0(i64 24, ptr %10) #7
  call void @llvm.lifetime.end.p0(i64 24, ptr %9) #7
  call void @llvm.lifetime.end.p0(i64 24, ptr %8) #7
  call void @llvm.lifetime.start.p0(i64 8, ptr %16) #7
  %26 = invoke noundef ptr @_ZN7doctest6String5c_strEv(ptr noundef nonnull align 8 dereferenceable(24) %7)
          to label %27 unwind label %58

27:                                               ; preds = %25
  store ptr %26, ptr %16, align 8, !tbaa !14
  invoke void @_ZN7doctest7Context9parseArgsEiPKPKcb(ptr noundef nonnull align 8 dereferenceable(8) %17, i32 noundef 1, ptr noundef %16, i1 noundef zeroext false)
          to label %28 unwind label %58

28:                                               ; preds = %27
  call void @llvm.lifetime.end.p0(i64 8, ptr %16) #7
  call void @_ZN7doctest6StringD1Ev(ptr noundef nonnull align 8 dereferenceable(24) %7) #7
  call void @llvm.lifetime.end.p0(i64 24, ptr %7) #7
  ret void

29:                                               ; preds = %3
  %30 = landingpad { ptr, i32 }
          cleanup
  %31 = extractvalue { ptr, i32 } %30, 0
  store ptr %31, ptr %12, align 8
  %32 = extractvalue { ptr, i32 } %30, 1
  store i32 %32, ptr %13, align 4
  br label %57

33:                                               ; preds = %19
  %34 = landingpad { ptr, i32 }
          cleanup
  %35 = extractvalue { ptr, i32 } %34, 0
  store ptr %35, ptr %12, align 8
  %36 = extractvalue { ptr, i32 } %34, 1
  store i32 %36, ptr %13, align 4
  br label %56

37:                                               ; preds = %20
  %38 = landingpad { ptr, i32 }
          cleanup
  %39 = extractvalue { ptr, i32 } %38, 0
  store ptr %39, ptr %12, align 8
  %40 = extractvalue { ptr, i32 } %38, 1
  store i32 %40, ptr %13, align 4
  br label %55

41:                                               ; preds = %21
  %42 = landingpad { ptr, i32 }
          cleanup
  %43 = extractvalue { ptr, i32 } %42, 0
  store ptr %43, ptr %12, align 8
  %44 = extractvalue { ptr, i32 } %42, 1
  store i32 %44, ptr %13, align 4
  br label %54

45:                                               ; preds = %22
  %46 = landingpad { ptr, i32 }
          cleanup
  %47 = extractvalue { ptr, i32 } %46, 0
  store ptr %47, ptr %12, align 8
  %48 = extractvalue { ptr, i32 } %46, 1
  store i32 %48, ptr %13, align 4
  br label %53

49:                                               ; preds = %24
  %50 = landingpad { ptr, i32 }
          cleanup
  %51 = extractvalue { ptr, i32 } %50, 0
  store ptr %51, ptr %12, align 8
  %52 = extractvalue { ptr, i32 } %50, 1
  store i32 %52, ptr %13, align 4
  call void @_ZN7doctest6StringD1Ev(ptr noundef nonnull align 8 dereferenceable(24) %15) #7
  br label %53

53:                                               ; preds = %49, %45
  call void @llvm.lifetime.end.p0(i64 24, ptr %15) #7
  call void @_ZN7doctest6StringD1Ev(ptr noundef nonnull align 8 dereferenceable(24) %8) #7
  br label %54

54:                                               ; preds = %53, %41
  call void @_ZN7doctest6StringD1Ev(ptr noundef nonnull align 8 dereferenceable(24) %14) #7
  br label %55

55:                                               ; preds = %54, %37
  call void @llvm.lifetime.end.p0(i64 24, ptr %14) #7
  call void @_ZN7doctest6StringD1Ev(ptr noundef nonnull align 8 dereferenceable(24) %9) #7
  br label %56

56:                                               ; preds = %55, %33
  call void @_ZN7doctest6StringD1Ev(ptr noundef nonnull align 8 dereferenceable(24) %11) #7
  br label %57

57:                                               ; preds = %56, %29
  call void @llvm.lifetime.end.p0(i64 24, ptr %11) #7
  call void @_ZN7doctest6StringD1Ev(ptr noundef nonnull align 8 dereferenceable(24) %10) #7
  call void @llvm.lifetime.end.p0(i64 24, ptr %10) #7
  call void @llvm.lifetime.end.p0(i64 24, ptr %9) #7
  call void @llvm.lifetime.end.p0(i64 24, ptr %8) #7
  br label %62

58:                                               ; preds = %27, %25
  %59 = landingpad { ptr, i32 }
          cleanup
  %60 = extractvalue { ptr, i32 } %59, 0
  store ptr %60, ptr %12, align 8
  %61 = extractvalue { ptr, i32 } %59, 1
  store i32 %61, ptr %13, align 4
  call void @llvm.lifetime.end.p0(i64 8, ptr %16) #7
  call void @_ZN7doctest6StringD1Ev(ptr noundef nonnull align 8 dereferenceable(24) %7) #7
  br label %62

62:                                               ; preds = %58, %57
  call void @llvm.lifetime.end.p0(i64 24, ptr %7) #7
  br label %63

63:                                               ; preds = %62
  %64 = load ptr, ptr %12, align 8
  %65 = load i32, ptr %13, align 4
  %66 = insertvalue { ptr, i32 } poison, ptr %64, 0
  %67 = insertvalue { ptr, i32 } %66, i32 %65, 1
  resume { ptr, i32 } %67
}