; Function Attrs: mustprogress uwtable
define dso_local void @_ZN7doctest7Context9setOptionEPKcS2_(ptr noundef nonnull readonly align 8 captures(none) dereferenceable(8) %0, ptr noundef readonly captures(none) %1, ptr noundef readonly captures(none) %2) local_unnamed_addr #8 align 2 personality ptr @__gxx_personality_v0 {
_ZN7doctest6StringC2EPKc.exit:
  %3 = alloca %"class.doctest::String", align 8
  %4 = alloca %"class.doctest::String", align 8
  %5 = alloca %"class.doctest::String", align 8
  %6 = alloca %"class.doctest::String", align 8
  %7 = alloca %"class.doctest::String", align 8
  %8 = alloca %"class.doctest::String", align 8
  %9 = alloca %"class.doctest::String", align 8
  %10 = alloca ptr, align 8
  call void @llvm.lifetime.start.p0(i64 24, ptr nonnull %3) #49
  call void @llvm.lifetime.start.p0(i64 24, ptr nonnull %4) #49
  call void @llvm.lifetime.start.p0(i64 24, ptr nonnull %5) #49
  call void @llvm.lifetime.start.p0(i64 24, ptr nonnull %6) #49
  %11 = getelementptr inbounds nuw i8, ptr %6, i64 1
  store i8 0, ptr %11, align 1, !tbaa !38
  %12 = getelementptr inbounds nuw i8, ptr %6, i64 23
  store i8 22, ptr %12, align 1, !tbaa !38
  store i8 45, ptr %6, align 8
  call void @llvm.lifetime.start.p0(i64 24, ptr nonnull %7) #49
  %13 = tail call i64 @strlen(ptr noundef nonnull readonly dereferenceable(1) %1) #52
  %14 = trunc i64 %13 to i32
  %15 = icmp ult i32 %14, 24
  br i1 %15, label %16, label %22

16:                                               ; preds = %_ZN7doctest6StringC2EPKc.exit
  %17 = and i64 %13, 31
  %18 = getelementptr inbounds nuw [24 x i8], ptr %7, i64 0, i64 %17
  store i8 0, ptr %18, align 1, !tbaa !38
  %19 = trunc i64 %13 to i8
  %20 = sub nuw nsw i8 23, %19
  %21 = getelementptr inbounds nuw i8, ptr %7, i64 23
  store i8 %20, ptr %21, align 1, !tbaa !38
  br label %31

22:                                               ; preds = %_ZN7doctest6StringC2EPKc.exit
  %23 = getelementptr inbounds nuw i8, ptr %7, i64 23
  store i8 -128, ptr %23, align 1, !tbaa !38
  %24 = getelementptr inbounds nuw i8, ptr %7, i64 8
  store i32 %14, ptr %24, align 8, !tbaa !38
  %25 = add i32 %14, 1
  %26 = getelementptr inbounds nuw i8, ptr %7, i64 12
  store i32 %25, ptr %26, align 4, !tbaa !38
  %27 = zext i32 %25 to i64
  %28 = invoke noalias noundef nonnull ptr @_Znam(i64 noundef %27) #51
          to label %.noexc unwind label %95

.noexc:                                           ; preds = %22
  store ptr %28, ptr %7, align 8, !tbaa !38
  %29 = and i64 %13, 4294967295
  %30 = getelementptr inbounds nuw i8, ptr %28, i64 %29
  store i8 0, ptr %30, align 1, !tbaa !38
  br label %31

31:                                               ; preds = %.noexc, %16
  %.pre-phi.i.i17 = phi i64 [ %17, %16 ], [ %29, %.noexc ]
  %.0.i.i.i18 = phi ptr [ %7, %16 ], [ %28, %.noexc ]
  call void @llvm.memcpy.p0.p0.i64(ptr nonnull align 1 %.0.i.i.i18, ptr nonnull readonly align 1 %1, i64 %.pre-phi.i.i17, i1 false)
  invoke void @_ZN7doctestplERKNS_6StringES2_(ptr dead_on_unwind nonnull writable sret(%"class.doctest::String") align 8 %5, ptr noundef nonnull align 8 dereferenceable(24) %6, ptr noundef nonnull align 8 dereferenceable(24) %7)
          to label %32 unwind label %97

32:                                               ; preds = %31
  call void @llvm.lifetime.start.p0(i64 24, ptr nonnull %8) #49
  %33 = getelementptr inbounds nuw i8, ptr %8, i64 1
  store i8 0, ptr %33, align 1, !tbaa !38
  %34 = getelementptr inbounds nuw i8, ptr %8, i64 23
  store i8 22, ptr %34, align 1, !tbaa !38
  store i8 61, ptr %8, align 8
  invoke void @_ZN7doctestplERKNS_6StringES2_(ptr dead_on_unwind nonnull writable sret(%"class.doctest::String") align 8 %4, ptr noundef nonnull align 8 dereferenceable(24) %5, ptr noundef nonnull align 8 dereferenceable(24) %8)
          to label %35 unwind label %99

35:                                               ; preds = %32
  call void @llvm.lifetime.start.p0(i64 24, ptr nonnull %9) #49
  %36 = tail call i64 @strlen(ptr noundef nonnull readonly dereferenceable(1) %2) #52
  %37 = trunc i64 %36 to i32
  %38 = icmp ult i32 %37, 24
  br i1 %38, label %39, label %45

39:                                               ; preds = %35
  %40 = and i64 %36, 31
  %41 = getelementptr inbounds nuw [24 x i8], ptr %9, i64 0, i64 %40
  store i8 0, ptr %41, align 1, !tbaa !38
  %42 = trunc i64 %36 to i8
  %43 = sub nuw nsw i8 23, %42
  %44 = getelementptr inbounds nuw i8, ptr %9, i64 23
  store i8 %43, ptr %44, align 1, !tbaa !38
  br label %54

45:                                               ; preds = %35
  %46 = getelementptr inbounds nuw i8, ptr %9, i64 23
  store i8 -128, ptr %46, align 1, !tbaa !38
  %47 = getelementptr inbounds nuw i8, ptr %9, i64 8
  store i32 %37, ptr %47, align 8, !tbaa !38
  %48 = add i32 %37, 1
  %49 = getelementptr inbounds nuw i8, ptr %9, i64 12
  store i32 %48, ptr %49, align 4, !tbaa !38
  %50 = zext i32 %48 to i64
  %51 = invoke noalias noundef nonnull ptr @_Znam(i64 noundef %50) #51
          to label %.noexc26 unwind label %101

.noexc26:                                         ; preds = %45
  store ptr %51, ptr %9, align 8, !tbaa !38
  %52 = and i64 %36, 4294967295
  %53 = getelementptr inbounds nuw i8, ptr %51, i64 %52
  store i8 0, ptr %53, align 1, !tbaa !38
  br label %54

54:                                               ; preds = %.noexc26, %39
  %.pre-phi.i.i24 = phi i64 [ %40, %39 ], [ %52, %.noexc26 ]
  %.0.i.i.i25 = phi ptr [ %9, %39 ], [ %51, %.noexc26 ]
  call void @llvm.memcpy.p0.p0.i64(ptr nonnull align 1 %.0.i.i.i25, ptr nonnull readonly align 1 %2, i64 %.pre-phi.i.i24, i1 false)
  invoke void @_ZN7doctestplERKNS_6StringES2_(ptr dead_on_unwind nonnull writable sret(%"class.doctest::String") align 8 %3, ptr noundef nonnull align 8 dereferenceable(24) %4, ptr noundef nonnull align 8 dereferenceable(24) %9)
          to label %55 unwind label %103

55:                                               ; preds = %54
  %56 = getelementptr inbounds nuw i8, ptr %9, i64 23
  %57 = load i8, ptr %56, align 1, !tbaa !38
  %58 = icmp sgt i8 %57, -1
  br i1 %58, label %_ZN7doctest6StringD2Ev.exit, label %59

59:                                               ; preds = %55
  %60 = load ptr, ptr %9, align 8, !tbaa !38
  %61 = icmp eq ptr %60, null
  br i1 %61, label %_ZN7doctest6StringD2Ev.exit, label %62

62:                                               ; preds = %59
  tail call void @_ZdaPv(ptr noundef nonnull %60) #48
  br label %_ZN7doctest6StringD2Ev.exit

_ZN7doctest6StringD2Ev.exit:                      ; preds = %55, %59, %62
  call void @llvm.lifetime.end.p0(i64 24, ptr nonnull %9) #49
  %63 = getelementptr inbounds nuw i8, ptr %4, i64 23
  %64 = load i8, ptr %63, align 1, !tbaa !38
  %65 = icmp sgt i8 %64, -1
  br i1 %65, label %_ZN7doctest6StringD2Ev.exit29, label %66

66:                                               ; preds = %_ZN7doctest6StringD2Ev.exit
  %67 = load ptr, ptr %4, align 8, !tbaa !38
  %68 = icmp eq ptr %67, null
  br i1 %68, label %_ZN7doctest6StringD2Ev.exit29, label %69

69:                                               ; preds = %66
  tail call void @_ZdaPv(ptr noundef nonnull %67) #48
  br label %_ZN7doctest6StringD2Ev.exit29

_ZN7doctest6StringD2Ev.exit29:                    ; preds = %69, %66, %_ZN7doctest6StringD2Ev.exit
  call void @llvm.lifetime.end.p0(i64 24, ptr nonnull %8) #49
  %70 = getelementptr inbounds nuw i8, ptr %5, i64 23
  %71 = load i8, ptr %70, align 1, !tbaa !38
  %72 = icmp sgt i8 %71, -1
  br i1 %72, label %_ZN7doctest6StringD2Ev.exit30, label %73

73:                                               ; preds = %_ZN7doctest6StringD2Ev.exit29
  %74 = load ptr, ptr %5, align 8, !tbaa !38
  %75 = icmp eq ptr %74, null
  br i1 %75, label %_ZN7doctest6StringD2Ev.exit30, label %76

76:                                               ; preds = %73
  tail call void @_ZdaPv(ptr noundef nonnull %74) #48
  br label %_ZN7doctest6StringD2Ev.exit30

_ZN7doctest6StringD2Ev.exit30:                    ; preds = %_ZN7doctest6StringD2Ev.exit29, %73, %76
  %77 = getelementptr inbounds nuw i8, ptr %7, i64 23
  %78 = load i8, ptr %77, align 1, !tbaa !38
  %79 = icmp sgt i8 %78, -1
  br i1 %79, label %_ZN7doctest6StringD2Ev.exit32, label %80

80:                                               ; preds = %_ZN7doctest6StringD2Ev.exit30
  %81 = load ptr, ptr %7, align 8, !tbaa !38
  %82 = icmp eq ptr %81, null
  br i1 %82, label %_ZN7doctest6StringD2Ev.exit32, label %83

83:                                               ; preds = %80
  tail call void @_ZdaPv(ptr noundef nonnull %81) #48
  br label %_ZN7doctest6StringD2Ev.exit32

_ZN7doctest6StringD2Ev.exit32:                    ; preds = %83, %80, %_ZN7doctest6StringD2Ev.exit30
  call void @llvm.lifetime.end.p0(i64 24, ptr nonnull %7) #49
  call void @llvm.lifetime.end.p0(i64 24, ptr nonnull %6) #49
  call void @llvm.lifetime.end.p0(i64 24, ptr nonnull %5) #49
  call void @llvm.lifetime.end.p0(i64 24, ptr nonnull %4) #49
  call void @llvm.lifetime.start.p0(i64 8, ptr nonnull %10) #49
  %84 = getelementptr inbounds nuw i8, ptr %3, i64 23
  %85 = load i8, ptr %84, align 1, !tbaa !38
  %86 = load ptr, ptr %3, align 8
  %87 = icmp slt i8 %85, 0
  %.0.i = select i1 %87, ptr %86, ptr %3
  store ptr %.0.i, ptr %10, align 8, !tbaa !5
  invoke void @_ZN7doctest7Context9parseArgsEiPKPKcb(ptr noundef nonnull align 8 dereferenceable(8) %0, i32 noundef 1, ptr noundef nonnull %10, i1 noundef zeroext false)
          to label %88 unwind label %133

88:                                               ; preds = %_ZN7doctest6StringD2Ev.exit32
  call void @llvm.lifetime.end.p0(i64 8, ptr nonnull %10) #49
  %89 = load i8, ptr %84, align 1, !tbaa !38
  %90 = icmp sgt i8 %89, -1
  br i1 %90, label %_ZN7doctest6StringD2Ev.exit33, label %91

91:                                               ; preds = %88
  %92 = load ptr, ptr %3, align 8, !tbaa !38
  %93 = icmp eq ptr %92, null
  br i1 %93, label %_ZN7doctest6StringD2Ev.exit33, label %94

94:                                               ; preds = %91
  call void @_ZdaPv(ptr noundef nonnull %92) #48
  br label %_ZN7doctest6StringD2Ev.exit33

_ZN7doctest6StringD2Ev.exit33:                    ; preds = %88, %91, %94
  call void @llvm.lifetime.end.p0(i64 24, ptr nonnull %3) #49
  ret void

95:                                               ; preds = %22
  %96 = landingpad { ptr, i32 }
          cleanup
  br label %_ZN7doctest6StringD2Ev.exit39

97:                                               ; preds = %31
  %98 = landingpad { ptr, i32 }
          cleanup
  br label %_ZN7doctest6StringD2Ev.exit37

99:                                               ; preds = %32
  %100 = landingpad { ptr, i32 }
          cleanup
  br label %_ZN7doctest6StringD2Ev.exit36

101:                                              ; preds = %45
  %102 = landingpad { ptr, i32 }
          cleanup
  br label %_ZN7doctest6StringD2Ev.exit34

103:                                              ; preds = %54
  %104 = landingpad { ptr, i32 }
          cleanup
  %105 = getelementptr inbounds nuw i8, ptr %9, i64 23
  %106 = load i8, ptr %105, align 1, !tbaa !38
  %107 = icmp sgt i8 %106, -1
  br i1 %107, label %_ZN7doctest6StringD2Ev.exit34, label %108

108:                                              ; preds = %103
  %109 = load ptr, ptr %9, align 8, !tbaa !38
  %110 = icmp eq ptr %109, null
  br i1 %110, label %_ZN7doctest6StringD2Ev.exit34, label %111

111:                                              ; preds = %108
  tail call void @_ZdaPv(ptr noundef nonnull %109) #48
  br label %_ZN7doctest6StringD2Ev.exit34

_ZN7doctest6StringD2Ev.exit34:                    ; preds = %111, %108, %103, %101
  %.pn = phi { ptr, i32 } [ %102, %101 ], [ %104, %103 ], [ %104, %108 ], [ %104, %111 ]
  call void @llvm.lifetime.end.p0(i64 24, ptr nonnull %9) #49
  %112 = getelementptr inbounds nuw i8, ptr %4, i64 23
  %113 = load i8, ptr %112, align 1, !tbaa !38
  %114 = icmp sgt i8 %113, -1
  br i1 %114, label %_ZN7doctest6StringD2Ev.exit36, label %115

115:                                              ; preds = %_ZN7doctest6StringD2Ev.exit34
  %116 = load ptr, ptr %4, align 8, !tbaa !38
  %117 = icmp eq ptr %116, null
  br i1 %117, label %_ZN7doctest6StringD2Ev.exit36, label %118

118:                                              ; preds = %115
  tail call void @_ZdaPv(ptr noundef nonnull %116) #48
  br label %_ZN7doctest6StringD2Ev.exit36

_ZN7doctest6StringD2Ev.exit36:                    ; preds = %99, %_ZN7doctest6StringD2Ev.exit34, %115, %118
  %.pn.pn = phi { ptr, i32 } [ %100, %99 ], [ %.pn, %_ZN7doctest6StringD2Ev.exit34 ], [ %.pn, %115 ], [ %.pn, %118 ]
  call void @llvm.lifetime.end.p0(i64 24, ptr nonnull %8) #49
  %119 = getelementptr inbounds nuw i8, ptr %5, i64 23
  %120 = load i8, ptr %119, align 1, !tbaa !38
  %121 = icmp sgt i8 %120, -1
  br i1 %121, label %_ZN7doctest6StringD2Ev.exit37, label %122

122:                                              ; preds = %_ZN7doctest6StringD2Ev.exit36
  %123 = load ptr, ptr %5, align 8, !tbaa !38
  %124 = icmp eq ptr %123, null
  br i1 %124, label %_ZN7doctest6StringD2Ev.exit37, label %125

125:                                              ; preds = %122
  tail call void @_ZdaPv(ptr noundef nonnull %123) #48
  br label %_ZN7doctest6StringD2Ev.exit37

_ZN7doctest6StringD2Ev.exit37:                    ; preds = %125, %122, %_ZN7doctest6StringD2Ev.exit36, %97
  %.pn.pn.pn.pn = phi { ptr, i32 } [ %98, %97 ], [ %.pn.pn, %_ZN7doctest6StringD2Ev.exit36 ], [ %.pn.pn, %122 ], [ %.pn.pn, %125 ]
  %126 = getelementptr inbounds nuw i8, ptr %7, i64 23
  %127 = load i8, ptr %126, align 1, !tbaa !38
  %128 = icmp sgt i8 %127, -1
  br i1 %128, label %_ZN7doctest6StringD2Ev.exit39, label %129

129:                                              ; preds = %_ZN7doctest6StringD2Ev.exit37
  %130 = load ptr, ptr %7, align 8, !tbaa !38
  %131 = icmp eq ptr %130, null
  br i1 %131, label %_ZN7doctest6StringD2Ev.exit39, label %132

132:                                              ; preds = %129
  tail call void @_ZdaPv(ptr noundef nonnull %130) #48
  br label %_ZN7doctest6StringD2Ev.exit39

_ZN7doctest6StringD2Ev.exit39:                    ; preds = %95, %_ZN7doctest6StringD2Ev.exit37, %129, %132
  %.pn.pn.pn.pn.pn = phi { ptr, i32 } [ %96, %95 ], [ %.pn.pn.pn.pn, %_ZN7doctest6StringD2Ev.exit37 ], [ %.pn.pn.pn.pn, %129 ], [ %.pn.pn.pn.pn, %132 ]
  call void @llvm.lifetime.end.p0(i64 24, ptr nonnull %7) #49
  call void @llvm.lifetime.end.p0(i64 24, ptr nonnull %6) #49
  call void @llvm.lifetime.end.p0(i64 24, ptr nonnull %5) #49
  call void @llvm.lifetime.end.p0(i64 24, ptr nonnull %4) #49
  br label %_ZN7doctest6StringD2Ev.exit40

133:                                              ; preds = %_ZN7doctest6StringD2Ev.exit32
  %134 = landingpad { ptr, i32 }
          cleanup
  call void @llvm.lifetime.end.p0(i64 8, ptr nonnull %10) #49
  %135 = load i8, ptr %84, align 1, !tbaa !38
  %136 = icmp sgt i8 %135, -1
  br i1 %136, label %_ZN7doctest6StringD2Ev.exit40, label %137

137:                                              ; preds = %133
  %138 = load ptr, ptr %3, align 8, !tbaa !38
  %139 = icmp eq ptr %138, null
  br i1 %139, label %_ZN7doctest6StringD2Ev.exit40, label %140

140:                                              ; preds = %137
  call void @_ZdaPv(ptr noundef nonnull %138) #48
  br label %_ZN7doctest6StringD2Ev.exit40

_ZN7doctest6StringD2Ev.exit40:                    ; preds = %140, %137, %133, %_ZN7doctest6StringD2Ev.exit39
  %.pn15 = phi { ptr, i32 } [ %.pn.pn.pn.pn.pn, %_ZN7doctest6StringD2Ev.exit39 ], [ %134, %133 ], [ %134, %137 ], [ %134, %140 ]
  call void @llvm.lifetime.end.p0(i64 24, ptr nonnull %3) #49
  resume { ptr, i32 } %.pn15
}